; Function Attrs: nounwind uwtable
define dso_local range(i32 0, 2) i32 @strset_add(ptr noundef %0, ptr noundef %1) local_unnamed_addr #5 {
  %3 = alloca %struct.strmap_entry, align 8
  call void @llvm.lifetime.start.p0(i64 32, ptr nonnull %3) #10
  %4 = tail call i32 @strhash(ptr noundef %1) #10
  %5 = getelementptr inbounds nuw i8, ptr %3, i64 8
  store i32 %4, ptr %5, align 8, !tbaa !21
  store ptr null, ptr %3, align 8, !tbaa !22
  %6 = getelementptr inbounds nuw i8, ptr %3, i64 16
  store ptr %1, ptr %6, align 8, !tbaa !4
  %7 = call ptr @hashmap_get(ptr noundef %0, ptr noundef nonnull %3, ptr noundef null) #10
  call void @llvm.lifetime.end.p0(i64 32, ptr nonnull %3) #10
  %.not = icmp eq ptr %7, null
  br i1 %.not, label %8, label %10

8:                                                ; preds = %2
  %9 = call fastcc ptr @create_entry(ptr noundef %0, ptr noundef %1, ptr noundef null)
  call void @hashmap_add(ptr noundef %0, ptr noundef %9) #10
  br label %10

10:                                               ; preds = %2, %8
  %.0 = phi i32 [ 1, %8 ], [ 0, %2 ]
  ret i32 %.0
}